Certificate:
    Data:
        Version: 3 (0x2)
        Serial Number: 14 (0xe)
    Signature Algorithm: sha256WithRSAEncryption
        Issuer: C=US, ST=California, L=San Francisco, O=Wikimedia Foundation, OU=Operations, CN=WMF CA 2014-2017
        Validity
            Not Before: Jan 25 20:45:00 2016 GMT
            Not After : Jan 14 20:45:00 2018 GMT
        Subject: C=US, ST=California, O=Wikimedia Foundation, OU=Operations, CN=labtestservices2001.wikimedia.org
        Subject Public Key Info:
            Public Key Algorithm: rsaEncryption
                Public-Key: (4096 bit)
                Modulus:
                    00:cf:92:6c:20:ae:e7:25:75:d1:31:af:e4:b5:4d:
                    fe:c0:f4:6d:e0:67:31:f5:c6:3e:f9:9e:e1:5c:3e:
                    c3:39:ae:3c:ec:2c:dd:c6:e6:6a:48:d7:81:7f:4f:
                    a0:5b:76:ca:fd:18:20:57:61:b3:c4:e4:b8:80:21:
                    97:a0:a1:59:2c:14:7b:a2:86:d2:b6:ef:11:84:f2:
                    49:fa:07:8a:8e:ef:88:9a:23:ee:da:6a:47:d1:56:
                    51:0a:2c:df:cc:c9:d3:ac:9d:d9:86:99:92:e8:01:
                    54:88:e1:e5:45:bb:36:0b:37:9d:d5:3a:36:8f:f2:
                    01:9f:a6:aa:2c:c4:47:19:60:b2:6d:71:ab:bf:69:
                    d5:33:4b:85:12:de:d4:ba:44:99:83:0b:10:fe:ab:
                    4f:75:cf:fa:ef:49:bb:ce:d4:93:af:3b:05:24:bd:
                    9a:22:17:fa:07:21:5f:28:70:ad:ce:ee:16:0a:d6:
                    4a:a0:ca:f7:48:db:a7:53:be:39:87:3f:84:be:9b:
                    2d:e9:ce:f6:d5:72:63:cf:94:02:34:52:a8:3b:62:
                    dd:72:f9:f3:a4:15:66:b4:48:7a:04:e2:3a:ca:39:
                    37:bd:20:12:95:ab:1d:bc:c4:aa:64:81:6c:d4:86:
                    4a:7f:5d:8b:83:76:a0:66:12:f2:e0:bf:ef:d6:2e:
                    06:94:df:d2:37:84:08:5f:32:47:54:0d:56:50:db:
                    51:85:a2:c6:a7:a9:7b:40:46:c4:cf:4a:05:6d:47:
                    3d:09:db:6f:e2:02:ab:0e:b6:33:ae:3a:69:15:4c:
                    74:20:33:94:76:1f:fe:46:17:6f:84:94:f7:75:7e:
                    9d:0b:aa:97:7a:ba:99:40:40:47:a8:70:f6:ae:0c:
                    d8:f0:82:1e:1b:45:73:42:ac:26:74:ae:e5:67:2f:
                    10:0e:ef:c1:1d:71:f8:29:7c:05:f8:d3:e6:35:37:
                    f4:e7:32:4e:78:6c:95:dc:8c:29:a3:22:0f:04:8c:
                    7f:d3:53:23:30:de:1b:fb:50:1b:df:11:d6:0e:2e:
                    af:f4:65:d0:37:da:ea:b7:c4:b3:c8:d4:9f:bf:5a:
                    33:1d:c5:d0:d7:46:47:ac:fc:89:e9:b9:e6:8f:9c:
                    6f:4c:72:42:43:22:06:24:81:50:36:3b:c4:1c:71:
                    2d:34:7a:3d:99:cc:75:3c:4e:f9:c1:b6:3e:e9:e4:
                    3e:81:25:f4:94:02:b3:0e:08:a0:ba:81:c9:ac:84:
                    c4:05:51:73:17:61:5a:67:e8:7b:66:e2:2a:85:d4:
                    50:a8:7b:84:5e:5b:9e:09:1c:65:8f:07:72:20:51:
                    fa:58:42:d1:31:bd:f2:04:72:78:bd:29:a8:79:ec:
                    17:85:7b
                Exponent: 65537 (0x10001)
        X509v3 extensions:
            X509v3 Basic Constraints: 
                CA:FALSE
            Netscape Comment: 
                OpenSSL Generated Certificate
            X509v3 Subject Key Identifier: 
                D6:9E:59:78:12:EF:F7:24:DC:00:74:86:D7:96:C7:42:DB:B3:F5:3F
            X509v3 Authority Key Identifier: 
                keyid:F4:0D:54:CB:AB:60:27:62:13:83:FB:F8:29:3B:E8:C8:98:AF:88:29

    Signature Algorithm: sha256WithRSAEncryption
         7f:99:f5:39:b3:a1:81:b0:0b:fc:e9:d4:20:1d:55:65:25:67:
         2e:05:37:a3:5d:6d:f8:1b:89:97:9a:2e:7e:ae:c3:56:a0:c1:
         70:aa:9e:0d:72:12:b9:e5:10:05:b8:b1:8f:e5:0a:8f:e6:cf:
         16:3c:00:67:e4:99:0a:77:43:ca:86:ae:4c:cb:55:ab:d3:32:
         5e:e0:d3:d3:5d:d7:cf:f8:f7:6d:eb:08:90:fb:a0:a6:e3:ea:
         9e:2a:95:7b:27:b9:0e:2a:90:4f:01:6c:1c:24:6e:fd:06:16:
         b1:76:41:3b:7c:c7:5d:b2:25:93:c1:0c:e8:ab:62:59:da:be:
         b1:60:a1:6b:bb:78:90:03:48:fe:02:fb:21:0e:20:d3:02:12:
         2a:97:c2:3f:57:61:c9:c4:80:c9:6a:58:23:a2:6b:d6:2d:3b:
         bd:c7:fb:a1:b1:3e:b9:ae:a4:04:80:bb:35:94:60:a8:49:36:
         da:ad:a6:56:ef:45:3f:a3:b7:6c:ee:0a:4f:ed:de:84:46:8b:
         95:61:86:eb:29:45:e9:89:3a:5a:8c:7b:84:e8:c4:57:cd:44:
         67:4e:ac:d6:79:fc:a4:49:8f:5b:0a:7c:68:a0:28:c6:f5:47:
         96:03:f7:42:b9:05:8d:73:76:ae:fb:13:d9:ff:dd:1e:ab:95:
         94:ad:4c:d9:02:7b:1a:49:2c:5f:53:03:e2:2c:5e:4b:80:24:
         f0:c8:42:94:4a:89:76:76:72:71:27:3a:c7:bb:1f:e7:54:95:
         34:15:8a:92:b8:d3:e2:ef:8c:ea:b8:50:f8:24:33:67:46:5b:
         0f:44:04:66:2f:dc:d8:ca:94:0b:a0:c3:25:4e:33:55:0a:18:
         e8:9e:43:4c:e6:76:e1:d7:45:8a:f6:0c:83:dd:a5:57:4e:55:
         ed:15:87:fa:4c:2e:82:9a:1e:56:68:59:97:36:9b:14:7a:da:
         e2:ef:3c:dd:1c:d0:50:ca:a1:a6:c9:7a:c2:01:1d:ac:2c:c5:
         a4:32:5b:9a:78:65:bf:5b:8d:e7:69:e5:55:cf:42:f5:b7:7c:
         62:f4:f5:a5:3e:32:84:58:29:50:5b:86:04:e3:b7:6d:d0:63:
         8a:29:cc:6e:bd:7c:f2:d7:a1:3a:26:6f:7d:12:cc:44:c7:d3:
         1f:77:8f:dc:a8:e7:07:5c:37:4d:36:99:ed:82:90:de:da:ad:
         6f:0a:08:1c:fe:a4:27:b6:8b:ea:ff:44:d2:1a:5e:1d:02:95:
         4b:26:6b:47:23:e9:7e:ba:69:da:b2:2e:a1:05:47:a2:57:60:
         c3:8d:ce:1a:af:14:1d:96:44:0c:4c:af:ae:20:95:de:c9:90:
         13:12:2b:ff:33:04:8c:1a
-----BEGIN CERTIFICATE-----
MIIGAzCCA+ugAwIBAgIBDjANBgkqhkiG9w0BAQsFADCBiTELMAkGA1UEBhMCVVMx
EzARBgNVBAgMCkNhbGlmb3JuaWExFjAUBgNVBAcMDVNhbiBGcmFuY2lzY28xHTAb
BgNVBAoMFFdpa2ltZWRpYSBGb3VuZGF0aW9uMRMwEQYDVQQLDApPcGVyYXRpb25z
MRkwFwYDVQQDDBBXTUYgQ0EgMjAxNC0yMDE3MB4XDTE2MDEyNTIwNDUwMFoXDTE4
MDExNDIwNDUwMFowgYIxCzAJBgNVBAYTAlVTMRMwEQYDVQQIDApDYWxpZm9ybmlh
MR0wGwYDVQQKDBRXaWtpbWVkaWEgRm91bmRhdGlvbjETMBEGA1UECwwKT3BlcmF0
aW9uczEqMCgGA1UEAwwhbGFidGVzdHNlcnZpY2VzMjAwMS53aWtpbWVkaWEub3Jn
MIICIjANBgkqhkiG9w0BAQEFAAOCAg8AMIICCgKCAgEAz5JsIK7nJXXRMa/ktU3+
wPRt4Gcx9cY++Z7hXD7DOa487CzdxuZqSNeBf0+gW3bK/RggV2GzxOS4gCGXoKFZ
LBR7oobStu8RhPJJ+geKju+ImiPu2mpH0VZRCizfzMnTrJ3ZhpmS6AFUiOHlRbs2
Czed1To2j/IBn6aqLMRHGWCybXGrv2nVM0uFEt7UukSZgwsQ/qtPdc/670m7ztST
rzsFJL2aIhf6ByFfKHCtzu4WCtZKoMr3SNunU745hz+Evpst6c721XJjz5QCNFKo
O2LdcvnzpBVmtEh6BOI6yjk3vSASlasdvMSqZIFs1IZKf12Lg3agZhLy4L/v1i4G
lN/SN4QIXzJHVA1WUNtRhaLGp6l7QEbEz0oFbUc9Cdtv4gKrDrYzrjppFUx0IDOU
dh/+RhdvhJT3dX6dC6qXerqZQEBHqHD2rgzY8IIeG0VzQqwmdK7lZy8QDu/BHXH4
KXwF+NPmNTf05zJOeGyV3IwpoyIPBIx/01MjMN4b+1Ab3xHWDi6v9GXQN9rqt8Sz
yNSfv1ozHcXQ10ZHrPyJ6bnmj5xvTHJCQyIGJIFQNjvEHHEtNHo9mcx1PE75wbY+
6eQ+gSX0lAKzDgiguoHJrITEBVFzF2FaZ+h7ZuIqhdRQqHuEXlueCRxljwdyIFH6
WELRMb3yBHJ4vSmoeewXhXsCAwEAAaN7MHkwCQYDVR0TBAIwADAsBglghkgBhvhC
AQ0EHxYdT3BlblNTTCBHZW5lcmF0ZWQgQ2VydGlmaWNhdGUwHQYDVR0OBBYEFNae
WXgS7/ck3AB0hteWx0Lbs/U/MB8GA1UdIwQYMBaAFPQNVMurYCdiE4P7+Ck76MiY
r4gpMA0GCSqGSIb3DQEBCwUAA4ICAQB/mfU5s6GBsAv86dQgHVVlJWcuBTejXW34
G4mXmi5+rsNWoMFwqp4NchK55RAFuLGP5QqP5s8WPABn5JkKd0PKhq5My1Wr0zJe
4NPTXdfP+Pdt6wiQ+6Cm4+qeKpV7J7kOKpBPAWwcJG79BhaxdkE7fMddsiWTwQzo
q2JZ2r6xYKFru3iQA0j+AvshDiDTAhIql8I/V2HJxIDJalgjomvWLTu9x/uhsT65
rqQEgLs1lGCoSTbaraZW70U/o7ds7gpP7d6ERouVYYbrKUXpiTpajHuE6MRXzURn
TqzWefykSY9bCnxooCjG9UeWA/dCuQWNc3au+xPZ/90eq5WUrUzZAnsaSSxfUwPi
LF5LgCTwyEKUSol2dnJxJzrHux/nVJU0FYqSuNPi74zquFD4JDNnRlsPRARmL9zY
ypQLoMMlTjNVChjonkNM5nbh10WK9gyD3aVXTlXtFYf6TC6Cmh5WaFmXNpsUetri
7zzdHNBQyqGmyXrCAR2sLMWkMluaeGW/W43naeVVz0L1t3xi9PWlPjKEWClQW4YE
47dt0GOKKcxuvXzy16E6Jm99EsxEx9Mfd4/cqOcHXDdNNpntgpDe2q1vCggc/qQn
tovq/0TSGl4dApVLJmtHI+l+umnasi6hBUeiV2DDjc4arxQdlkQMTK+uIJXeyZAT
Eiv/MwSMGg==
-----END CERTIFICATE-----
