Certificate:
    Data:
        Version: 3 (0x2)
        Serial Number: 4102 (0x1006)
    Signature Algorithm: sha256WithRSAEncryption
        Issuer: C=US, ST=California, L=San Francisco, O=Wikimedia Foundation, OU=Operations, CN=WMF CA 2017-2020
        Validity
            Not Before: Jul 20 06:20:53 2017 GMT
            Not After : Jul 10 06:20:53 2019 GMT
        Subject: C=US, ST=California, O=Wikimedia Foundation, OU=Operations, CN=labtestservices2001.wikimedia.org
        Subject Public Key Info:
            Public Key Algorithm: rsaEncryption
                Public-Key: (4096 bit)
                Modulus:
                    00:cf:92:6c:20:ae:e7:25:75:d1:31:af:e4:b5:4d:
                    fe:c0:f4:6d:e0:67:31:f5:c6:3e:f9:9e:e1:5c:3e:
                    c3:39:ae:3c:ec:2c:dd:c6:e6:6a:48:d7:81:7f:4f:
                    a0:5b:76:ca:fd:18:20:57:61:b3:c4:e4:b8:80:21:
                    97:a0:a1:59:2c:14:7b:a2:86:d2:b6:ef:11:84:f2:
                    49:fa:07:8a:8e:ef:88:9a:23:ee:da:6a:47:d1:56:
                    51:0a:2c:df:cc:c9:d3:ac:9d:d9:86:99:92:e8:01:
                    54:88:e1:e5:45:bb:36:0b:37:9d:d5:3a:36:8f:f2:
                    01:9f:a6:aa:2c:c4:47:19:60:b2:6d:71:ab:bf:69:
                    d5:33:4b:85:12:de:d4:ba:44:99:83:0b:10:fe:ab:
                    4f:75:cf:fa:ef:49:bb:ce:d4:93:af:3b:05:24:bd:
                    9a:22:17:fa:07:21:5f:28:70:ad:ce:ee:16:0a:d6:
                    4a:a0:ca:f7:48:db:a7:53:be:39:87:3f:84:be:9b:
                    2d:e9:ce:f6:d5:72:63:cf:94:02:34:52:a8:3b:62:
                    dd:72:f9:f3:a4:15:66:b4:48:7a:04:e2:3a:ca:39:
                    37:bd:20:12:95:ab:1d:bc:c4:aa:64:81:6c:d4:86:
                    4a:7f:5d:8b:83:76:a0:66:12:f2:e0:bf:ef:d6:2e:
                    06:94:df:d2:37:84:08:5f:32:47:54:0d:56:50:db:
                    51:85:a2:c6:a7:a9:7b:40:46:c4:cf:4a:05:6d:47:
                    3d:09:db:6f:e2:02:ab:0e:b6:33:ae:3a:69:15:4c:
                    74:20:33:94:76:1f:fe:46:17:6f:84:94:f7:75:7e:
                    9d:0b:aa:97:7a:ba:99:40:40:47:a8:70:f6:ae:0c:
                    d8:f0:82:1e:1b:45:73:42:ac:26:74:ae:e5:67:2f:
                    10:0e:ef:c1:1d:71:f8:29:7c:05:f8:d3:e6:35:37:
                    f4:e7:32:4e:78:6c:95:dc:8c:29:a3:22:0f:04:8c:
                    7f:d3:53:23:30:de:1b:fb:50:1b:df:11:d6:0e:2e:
                    af:f4:65:d0:37:da:ea:b7:c4:b3:c8:d4:9f:bf:5a:
                    33:1d:c5:d0:d7:46:47:ac:fc:89:e9:b9:e6:8f:9c:
                    6f:4c:72:42:43:22:06:24:81:50:36:3b:c4:1c:71:
                    2d:34:7a:3d:99:cc:75:3c:4e:f9:c1:b6:3e:e9:e4:
                    3e:81:25:f4:94:02:b3:0e:08:a0:ba:81:c9:ac:84:
                    c4:05:51:73:17:61:5a:67:e8:7b:66:e2:2a:85:d4:
                    50:a8:7b:84:5e:5b:9e:09:1c:65:8f:07:72:20:51:
                    fa:58:42:d1:31:bd:f2:04:72:78:bd:29:a8:79:ec:
                    17:85:7b
                Exponent: 65537 (0x10001)
        X509v3 extensions:
            X509v3 Basic Constraints: 
                CA:FALSE
            Netscape Comment: 
                OpenSSL Generated Certificate
            X509v3 Subject Key Identifier: 
                D6:9E:59:78:12:EF:F7:24:DC:00:74:86:D7:96:C7:42:DB:B3:F5:3F
            X509v3 Authority Key Identifier: 
                keyid:FF:39:05:76:2B:FA:D1:95:A3:B9:BE:81:6E:C5:61:CA:AD:CD:DC:A6

    Signature Algorithm: sha256WithRSAEncryption
         25:2e:03:fb:6e:d2:0b:df:20:3e:ed:c2:a9:2e:36:96:ba:cd:
         04:33:05:fc:3b:2f:b5:f7:98:c2:f6:2a:ea:35:a9:4c:ea:65:
         4d:13:5b:1a:0d:cb:6b:97:ee:69:e0:02:bd:88:34:0a:a6:44:
         85:fb:0d:d4:99:ca:2c:77:ef:af:57:0e:66:5a:8e:4f:55:b3:
         5b:73:a2:6a:80:f0:88:13:44:37:fd:05:2f:3f:5d:a9:c7:da:
         ee:b8:39:9a:87:e7:48:e6:1c:5f:4c:34:68:cb:ff:fd:91:8c:
         dd:14:7e:e8:91:b8:f9:98:40:06:c3:18:b9:c1:cc:3a:56:25:
         dc:fc:50:8e:68:61:8e:87:db:a6:e6:95:31:e8:fc:99:d9:1d:
         64:b2:eb:12:64:ac:0b:7c:9a:ea:e6:18:60:36:87:c6:c1:8a:
         55:3d:17:7e:88:7e:c0:b2:93:3c:46:8f:89:d1:69:54:c4:ac:
         93:48:d4:3c:06:61:1b:60:dc:8c:b1:d2:f1:fa:56:f6:32:40:
         73:69:e1:77:7f:c6:bc:90:ca:e0:ec:31:f6:c3:af:35:df:de:
         b4:42:61:ae:f8:4c:53:83:47:09:3a:38:6a:ae:38:cb:a6:9e:
         4d:f3:ca:d9:a8:1f:c6:b5:96:56:fe:e4:b2:cf:f6:92:f5:2e:
         18:ad:a8:74:36:7e:2f:31:c7:18:81:a5:cb:51:7d:0a:7b:e5:
         9b:c1:9f:91:1d:a9:2d:cf:e8:e8:03:0c:e8:35:fa:20:bb:00:
         88:7e:af:89:25:fb:51:fd:c7:77:3e:54:31:b2:f4:9c:8f:5d:
         81:9f:2b:9d:0b:7a:26:4a:db:08:a0:60:c3:4b:4b:68:1f:a2:
         13:9a:fa:d9:5f:21:54:41:62:5d:36:91:05:6c:79:20:82:3a:
         22:9a:0b:0c:97:ac:3c:67:55:25:71:f8:35:7f:71:7c:c8:2e:
         40:d4:73:d1:ca:27:01:31:ed:a5:df:97:b0:3f:68:8d:99:69:
         3f:74:c7:16:a3:e6:97:7b:11:1f:28:46:64:be:53:c8:a2:85:
         4a:09:2e:ab:e7:12:35:b8:09:3f:49:dc:e5:ff:10:40:dd:ff:
         66:1a:e8:f6:32:4a:bf:67:05:60:f9:12:18:05:b5:f6:0f:e5:
         73:29:22:2f:14:0c:a2:3e:27:24:3d:f6:08:f1:79:2a:b4:75:
         00:5e:ae:b7:22:72:fb:64:8c:c8:18:d7:7d:10:32:c2:fa:c1:
         9f:e4:40:32:03:c1:bd:4b:68:05:35:be:a3:86:a7:7a:d9:83:
         14:f7:2b:a5:12:6c:f6:8d:a8:9a:ac:c3:40:69:8a:a7:61:c4:
         60:53:a3:1a:41:c7:2f:b6
-----BEGIN CERTIFICATE-----
MIIGBDCCA+ygAwIBAgICEAYwDQYJKoZIhvcNAQELBQAwgYkxCzAJBgNVBAYTAlVT
MRMwEQYDVQQIDApDYWxpZm9ybmlhMRYwFAYDVQQHDA1TYW4gRnJhbmNpc2NvMR0w
GwYDVQQKDBRXaWtpbWVkaWEgRm91bmRhdGlvbjETMBEGA1UECwwKT3BlcmF0aW9u
czEZMBcGA1UEAwwQV01GIENBIDIwMTctMjAyMDAeFw0xNzA3MjAwNjIwNTNaFw0x
OTA3MTAwNjIwNTNaMIGCMQswCQYDVQQGEwJVUzETMBEGA1UECAwKQ2FsaWZvcm5p
YTEdMBsGA1UECgwUV2lraW1lZGlhIEZvdW5kYXRpb24xEzARBgNVBAsMCk9wZXJh
dGlvbnMxKjAoBgNVBAMMIWxhYnRlc3RzZXJ2aWNlczIwMDEud2lraW1lZGlhLm9y
ZzCCAiIwDQYJKoZIhvcNAQEBBQADggIPADCCAgoCggIBAM+SbCCu5yV10TGv5LVN
/sD0beBnMfXGPvme4Vw+wzmuPOws3cbmakjXgX9PoFt2yv0YIFdhs8TkuIAhl6Ch
WSwUe6KG0rbvEYTySfoHio7viJoj7tpqR9FWUQos38zJ06yd2YaZkugBVIjh5UW7
Ngs3ndU6No/yAZ+mqizERxlgsm1xq79p1TNLhRLe1LpEmYMLEP6rT3XP+u9Ju87U
k687BSS9miIX+gchXyhwrc7uFgrWSqDK90jbp1O+OYc/hL6bLenO9tVyY8+UAjRS
qDti3XL586QVZrRIegTiOso5N70gEpWrHbzEqmSBbNSGSn9di4N2oGYS8uC/79Yu
BpTf0jeECF8yR1QNVlDbUYWixqepe0BGxM9KBW1HPQnbb+ICqw62M646aRVMdCAz
lHYf/kYXb4SU93V+nQuql3q6mUBAR6hw9q4M2PCCHhtFc0KsJnSu5WcvEA7vwR1x
+Cl8BfjT5jU39OcyTnhsldyMKaMiDwSMf9NTIzDeG/tQG98R1g4ur/Rl0Dfa6rfE
s8jUn79aMx3F0NdGR6z8iem55o+cb0xyQkMiBiSBUDY7xBxxLTR6PZnMdTxO+cG2
PunkPoEl9JQCsw4IoLqByayExAVRcxdhWmfoe2biKoXUUKh7hF5bngkcZY8HciBR
+lhC0TG98gRyeL0pqHnsF4V7AgMBAAGjezB5MAkGA1UdEwQCMAAwLAYJYIZIAYb4
QgENBB8WHU9wZW5TU0wgR2VuZXJhdGVkIENlcnRpZmljYXRlMB0GA1UdDgQWBBTW
nll4Eu/3JNwAdIbXlsdC27P1PzAfBgNVHSMEGDAWgBT/OQV2K/rRlaO5voFuxWHK
rc3cpjANBgkqhkiG9w0BAQsFAAOCAgEAJS4D+27SC98gPu3CqS42lrrNBDMF/Dsv
tfeYwvYq6jWpTOplTRNbGg3La5fuaeACvYg0CqZEhfsN1JnKLHfvr1cOZlqOT1Wz
W3OiaoDwiBNEN/0FLz9dqcfa7rg5mofnSOYcX0w0aMv//ZGM3RR+6JG4+ZhABsMY
ucHMOlYl3PxQjmhhjofbpuaVMej8mdkdZLLrEmSsC3ya6uYYYDaHxsGKVT0Xfoh+
wLKTPEaPidFpVMSsk0jUPAZhG2DcjLHS8fpW9jJAc2nhd3/GvJDK4Owx9sOvNd/e
tEJhrvhMU4NHCTo4aq44y6aeTfPK2agfxrWWVv7kss/2kvUuGK2odDZ+LzHHGIGl
y1F9Cnvlm8GfkR2pLc/o6AMM6DX6ILsAiH6viSX7Uf3Hdz5UMbL0nI9dgZ8rnQt6
JkrbCKBgw0tLaB+iE5r62V8hVEFiXTaRBWx5III6IpoLDJesPGdVJXH4NX9xfMgu
QNRz0conATHtpd+XsD9ojZlpP3THFqPml3sRHyhGZL5TyKKFSgkuq+cSNbgJP0nc
5f8QQN3/Zhro9jJKv2cFYPkSGAW19g/lcykiLxQMoj4nJD32CPF5KrR1AF6utyJy
+2SMyBjXfRAywvrBn+RAMgPBvUtoBTW+o4anetmDFPcrpRJs9o2omqzDQGmKp2HE
YFOjGkHHL7Y=
-----END CERTIFICATE-----
