Certificate:
    Data:
        Version: 3 (0x2)
        Serial Number: 15 (0xf)
    Signature Algorithm: sha256WithRSAEncryption
        Issuer: C=US, ST=California, L=San Francisco, O=Wikimedia Foundation, OU=Operations, CN=WMF CA 2014-2017
        Validity
            Not Before: Apr  4 19:53:35 2017 GMT
            Not After : Mar 25 19:53:35 2019 GMT
        Subject: C=US, ST=California, O=Wikimedia Foundation, OU=Operations, CN=labvirt*.eqiad.wmnet/emailAddress=noc@wikimedia.org
        Subject Public Key Info:
            Public Key Algorithm: rsaEncryption
                Public-Key: (2048 bit)
                Modulus:
                    00:ca:58:a6:20:96:0e:8a:82:8e:9a:19:72:99:91:
                    d8:57:00:67:d1:87:80:a3:6d:02:9c:06:6b:e5:80:
                    84:04:ef:e9:8c:8d:b5:9f:cb:b7:f5:a4:d3:3b:1a:
                    3b:5a:0a:59:33:c6:bb:56:d7:aa:e3:6e:27:b6:5c:
                    d0:6d:1a:82:d6:d7:b5:86:85:fd:5b:a5:09:4c:f4:
                    b5:88:91:cf:f7:e7:fb:c2:6e:28:c7:d2:e7:b4:0f:
                    28:e8:ad:da:a8:4c:ac:5b:cb:70:ad:81:7b:68:9f:
                    fc:ed:dd:11:40:9e:09:dc:2d:38:c9:ea:30:d5:96:
                    85:58:59:ff:1c:da:4d:93:30:db:dd:46:4e:74:84:
                    b1:7c:da:e2:3e:12:97:61:9c:d4:d5:68:19:71:71:
                    75:58:8c:c1:1e:a7:61:0f:b3:d2:db:44:5e:3b:15:
                    5b:d4:9d:ca:df:e7:75:25:73:0b:e8:d1:c7:6e:1f:
                    ad:74:34:7a:ac:41:ab:e0:54:fa:a3:59:01:07:ae:
                    a1:f3:9c:83:58:29:a2:3a:88:11:97:82:a4:70:44:
                    32:22:43:5e:4a:3e:c7:09:30:d7:b9:f4:e4:6b:a9:
                    b2:e3:f5:f1:b2:67:ab:bf:91:44:2c:83:82:b5:ac:
                    c9:53:dd:77:6b:d0:ec:0b:fb:cc:58:95:a5:88:b0:
                    1e:3d
                Exponent: 65537 (0x10001)
        X509v3 extensions:
            X509v3 Basic Constraints: 
                CA:FALSE
            Netscape Comment: 
                OpenSSL Generated Certificate
            X509v3 Subject Key Identifier: 
                7C:90:52:2D:E9:66:E8:B3:FF:64:E7:10:59:F8:8F:EA:0D:3F:D0:1C
            X509v3 Authority Key Identifier: 
                keyid:F4:0D:54:CB:AB:60:27:62:13:83:FB:F8:29:3B:E8:C8:98:AF:88:29

    Signature Algorithm: sha256WithRSAEncryption
         5c:05:80:a2:79:9a:dd:97:41:25:41:b0:30:e5:e0:f8:11:0e:
         f0:ff:7a:54:bf:76:12:51:e1:ff:11:d2:57:8f:5c:8d:35:0d:
         9a:2d:5e:f6:25:cb:38:62:56:6c:19:06:43:7d:51:80:b4:fc:
         c0:31:8b:18:fb:31:fd:ee:bb:64:1a:dc:e0:16:bf:ed:07:a7:
         b2:d9:00:0a:12:fa:ef:63:91:d6:86:7a:0a:d8:a6:40:38:4a:
         3f:90:de:9f:41:34:3d:54:a8:ac:8e:15:4e:e8:8a:b7:71:d3:
         99:32:cf:d6:9e:40:36:0f:58:f3:83:91:d3:54:ab:fe:d8:ae:
         d8:70:54:41:1a:5c:55:f7:73:5e:df:5b:93:59:96:ef:9f:78:
         90:5c:39:d4:b5:de:a0:1d:6f:b0:90:3a:ac:14:7a:6a:9d:1a:
         1a:99:5e:8d:90:0c:72:ff:ae:53:b9:38:48:10:4b:69:86:55:
         73:29:7f:8d:b7:05:8b:f3:6b:49:46:4f:13:78:f7:41:69:d6:
         d5:59:a8:2c:44:d3:19:e9:8c:dd:b5:e9:1a:38:54:27:31:a3:
         e7:23:d2:3f:93:79:77:f3:a2:bf:82:98:88:1f:86:fa:47:72:
         3d:78:e3:6f:c2:6f:a9:0f:c3:73:16:e5:f6:0e:30:d6:e1:0e:
         12:19:a9:5c:55:9e:21:bb:48:d2:bb:77:45:93:13:19:31:4a:
         e7:0e:28:33:53:d5:80:62:a4:da:32:f2:10:29:ec:45:a9:de:
         89:66:b3:e6:d0:56:71:8a:bf:a1:1a:b2:8f:eb:41:9f:ad:dd:
         78:4f:2d:16:10:94:26:1f:dc:b8:54:b0:bb:c2:c6:61:11:07:
         95:4c:5e:ea:25:60:a4:24:42:af:d2:3d:68:0b:35:11:12:6f:
         ce:05:14:a0:e7:96:5c:bd:f0:26:9a:a3:0e:ff:74:4b:af:ed:
         f1:fe:08:7d:e8:a2:b9:32:6a:14:25:74:7b:e4:8d:c5:61:f4:
         c1:1d:f1:26:bc:e7:1e:3f:b8:0e:ed:40:a7:c7:64:2b:90:9c:
         1e:ea:f5:a1:37:5d:1a:0b:ea:5d:ea:82:69:c7:70:56:13:55:
         46:f3:d0:bb:94:8a:e1:59:6a:7d:87:96:5a:61:44:bf:8f:c2:
         a3:04:6a:b0:e2:97:9d:70:a3:94:e8:80:50:d8:83:61:8f:4f:
         d7:28:a8:b9:b0:62:8c:8e:e8:eb:b7:a3:7b:9f:f4:cc:5f:43:
         48:47:e0:22:64:76:c9:0b:6d:5e:81:14:fd:17:a1:fd:b9:08:
         88:95:81:77:d9:05:1a:24:b5:8c:4d:14:a9:45:f1:d1:72:68:
         78:e1:5f:bc:dc:05:9d:e6
-----BEGIN CERTIFICATE-----
MIIFGDCCAwCgAwIBAgIBDzANBgkqhkiG9w0BAQsFADCBiTELMAkGA1UEBhMCVVMx
EzARBgNVBAgMCkNhbGlmb3JuaWExFjAUBgNVBAcMDVNhbiBGcmFuY2lzY28xHTAb
BgNVBAoMFFdpa2ltZWRpYSBGb3VuZGF0aW9uMRMwEQYDVQQLDApPcGVyYXRpb25z
MRkwFwYDVQQDDBBXTUYgQ0EgMjAxNC0yMDE3MB4XDTE3MDQwNDE5NTMzNVoXDTE5
MDMyNTE5NTMzNVowgZcxCzAJBgNVBAYTAlVTMRMwEQYDVQQIDApDYWxpZm9ybmlh
MR0wGwYDVQQKDBRXaWtpbWVkaWEgRm91bmRhdGlvbjETMBEGA1UECwwKT3BlcmF0
aW9uczEdMBsGA1UEAwwUbGFidmlydCouZXFpYWQud21uZXQxIDAeBgkqhkiG9w0B
CQEWEW5vY0B3aWtpbWVkaWEub3JnMIIBIjANBgkqhkiG9w0BAQEFAAOCAQ8AMIIB
CgKCAQEAylimIJYOioKOmhlymZHYVwBn0YeAo20CnAZr5YCEBO/pjI21n8u39aTT
Oxo7WgpZM8a7Vteq424ntlzQbRqC1te1hoX9W6UJTPS1iJHP9+f7wm4ox9LntA8o
6K3aqEysW8twrYF7aJ/87d0RQJ4J3C04yeow1ZaFWFn/HNpNkzDb3UZOdISxfNri
PhKXYZzU1WgZcXF1WIzBHqdhD7PS20ReOxVb1J3K3+d1JXML6NHHbh+tdDR6rEGr
4FT6o1kBB66h85yDWCmiOogRl4KkcEQyIkNeSj7HCTDXufTka6my4/Xxsmerv5FE
LIOCtazJU913a9DsC/vMWJWliLAePQIDAQABo3sweTAJBgNVHRMEAjAAMCwGCWCG
SAGG+EIBDQQfFh1PcGVuU1NMIEdlbmVyYXRlZCBDZXJ0aWZpY2F0ZTAdBgNVHQ4E
FgQUfJBSLelm6LP/ZOcQWfiP6g0/0BwwHwYDVR0jBBgwFoAU9A1Uy6tgJ2ITg/v4
KTvoyJiviCkwDQYJKoZIhvcNAQELBQADggIBAFwFgKJ5mt2XQSVBsDDl4PgRDvD/
elS/dhJR4f8R0lePXI01DZotXvYlyzhiVmwZBkN9UYC0/MAxixj7Mf3uu2Qa3OAW
v+0Hp7LZAAoS+u9jkdaGegrYpkA4Sj+Q3p9BND1UqKyOFU7oirdx05kyz9aeQDYP
WPODkdNUq/7YrthwVEEaXFX3c17fW5NZlu+feJBcOdS13qAdb7CQOqwUemqdGhqZ
Xo2QDHL/rlO5OEgQS2mGVXMpf423BYvza0lGTxN490Fp1tVZqCxE0xnpjN216Ro4
VCcxo+cj0j+TeXfzor+CmIgfhvpHcj1442/Cb6kPw3MW5fYOMNbhDhIZqVxVniG7
SNK7d0WTExkxSucOKDNT1YBipNoy8hAp7EWp3olms+bQVnGKv6Easo/rQZ+t3XhP
LRYQlCYf3LhUsLvCxmERB5VMXuolYKQkQq/SPWgLNRESb84FFKDnlly98Caaow7/
dEuv7fH+CH3oorkyahQldHvkjcVh9MEd8Sa85x4/uA7tQKfHZCuQnB7q9aE3XRoL
6l3qgmnHcFYTVUbz0LuUiuFZan2HllphRL+PwqMEarDil51wo5TogFDYg2GPT9co
qLmwYoyO6Ou3o3uf9MxfQ0hH4CJkdskLbV6BFP0Xof25CIiVgXfZBRoktYxNFKlF
8dFyaHjhX7zcBZ3m
-----END CERTIFICATE-----
