Certificate:
    Data:
        Version: 3 (0x2)
        Serial Number: 4101 (0x1005)
    Signature Algorithm: sha256WithRSAEncryption
        Issuer: C=US, ST=California, L=San Francisco, O=Wikimedia Foundation, OU=Operations, CN=WMF CA 2017-2020
        Validity
            Not Before: Jul 20 06:10:01 2017 GMT
            Not After : Jul 10 06:10:01 2019 GMT
        Subject: C=US, ST=California, O=Wikimedia Foundation, OU=Operations, CN=labvirt-*.codfw
        Subject Public Key Info:
            Public Key Algorithm: rsaEncryption
                Public-Key: (2048 bit)
                Modulus:
                    00:cf:3c:59:02:3a:4d:7f:5b:b6:da:8f:ca:8b:42:
                    84:4b:f6:04:38:31:7f:7a:97:8c:8e:47:7e:11:90:
                    99:87:e6:23:7e:23:31:a3:de:fc:1a:11:16:38:e6:
                    5d:3d:64:32:90:c5:0c:9a:d4:31:ec:0f:4f:c9:06:
                    d1:31:29:fe:4f:1b:46:51:8b:54:01:d4:33:b7:4d:
                    89:3e:80:89:84:d7:f6:86:16:b8:1f:26:ea:94:14:
                    ec:06:25:ed:57:40:55:77:fc:e0:31:2e:ae:59:8e:
                    e4:6d:70:32:5c:5a:6b:a6:b5:a0:f1:30:6a:07:f4:
                    21:ee:8d:15:5f:eb:f5:eb:40:f8:c8:c6:54:46:d1:
                    7a:b3:a8:4e:a1:4f:7e:97:3f:10:e2:22:4c:e0:10:
                    db:b4:a3:38:5a:09:e6:13:23:7f:95:b7:29:fe:95:
                    a2:a3:a5:28:5b:12:11:d7:ba:3a:89:ec:f3:33:15:
                    54:31:79:3f:0a:a5:61:5c:8f:b0:8d:7d:0b:26:a0:
                    5d:39:9a:da:6d:bb:84:2f:97:ec:47:c1:46:37:aa:
                    b9:9e:06:54:60:10:e1:93:27:43:f7:4c:93:d6:11:
                    8c:d6:52:b3:be:68:30:41:7d:42:48:c7:13:7b:92:
                    3f:c4:9f:3f:c6:82:6a:29:d5:e3:8d:ef:9f:85:5c:
                    c6:21
                Exponent: 65537 (0x10001)
        X509v3 extensions:
            X509v3 Basic Constraints: 
                CA:FALSE
            Netscape Comment: 
                OpenSSL Generated Certificate
            X509v3 Subject Key Identifier: 
                6F:8D:A4:74:61:74:CE:07:D2:D4:36:19:E7:0F:F0:9B:7B:CE:6A:82
            X509v3 Authority Key Identifier: 
                keyid:FF:39:05:76:2B:FA:D1:95:A3:B9:BE:81:6E:C5:61:CA:AD:CD:DC:A6

    Signature Algorithm: sha256WithRSAEncryption
         32:29:8f:b8:0b:d1:6e:22:f0:42:67:e2:31:58:22:fd:80:30:
         63:f0:70:6c:55:43:61:63:c4:56:ed:a8:96:2c:fa:c6:2f:35:
         61:e3:1a:3c:1d:68:a2:1f:cb:cf:e0:be:db:01:02:f0:c9:c9:
         9a:33:42:ca:6d:5c:64:c7:e0:26:e7:8e:ae:52:27:2b:21:0f:
         65:0d:d3:ff:40:79:06:36:c8:3a:a1:00:db:6b:e0:22:0f:37:
         91:45:13:12:22:fc:59:a8:ac:62:79:1e:72:51:1d:d2:97:cf:
         18:fb:40:82:4b:e9:8f:fd:30:4f:0a:28:1e:81:5b:ea:bc:d1:
         9b:a0:55:ef:14:9d:f5:07:85:b1:8f:4d:6b:8e:a5:ee:16:0d:
         38:65:38:c8:9d:4f:1d:c2:b9:57:5b:0c:87:14:e9:24:a2:78:
         18:f7:06:c2:11:33:5d:8d:30:43:f2:d3:38:8f:16:43:c2:41:
         4a:4c:6d:53:22:b3:81:bc:44:c4:08:83:bf:80:a5:f4:46:5b:
         00:bf:91:8f:81:6a:29:ba:fd:34:db:6b:ea:f9:39:db:30:ed:
         81:97:e0:e8:6c:b1:a9:c3:99:f8:ac:02:d6:f6:48:52:64:fb:
         f5:59:75:e9:b7:ec:72:85:e0:87:d9:b5:10:6b:9e:30:fc:ad:
         bf:b9:2c:d6:a1:a0:4c:d7:21:06:fc:1d:b9:5a:6b:2b:05:f1:
         61:16:a8:6c:5b:dc:3e:f1:91:70:4f:a5:a6:d9:2d:9c:cf:21:
         42:3a:89:86:b2:dd:01:0d:a5:a4:1d:36:3f:52:6f:5e:9b:93:
         b5:d7:36:8f:5e:f0:a4:0b:bb:20:1f:55:41:6d:ee:86:73:a1:
         e3:e0:6e:4e:1e:75:a8:45:30:d7:6d:0d:ca:0f:fc:5b:09:ce:
         58:8b:3d:ab:53:cc:51:2b:80:3d:70:67:8e:b8:bf:3e:0b:c1:
         21:1e:53:56:3e:28:db:24:34:75:69:ef:83:da:fd:e0:03:6b:
         28:b8:ba:5d:3a:02:2f:e1:63:35:62:34:32:69:f2:cb:e9:b9:
         e3:69:24:4e:d9:a8:6e:23:f2:67:6b:10:cf:d1:82:01:23:99:
         1e:d0:8e:c2:1b:fc:26:7e:f6:90:b0:79:a6:41:ce:b7:23:69:
         60:e5:a6:4a:a1:8a:00:9e:4d:18:2f:d3:06:5d:e6:8a:b5:4e:
         ef:d6:b2:a2:85:25:9b:53:51:e7:bf:8f:b9:97:4d:82:33:65:
         9f:d2:54:4c:7d:61:e6:cc:76:28:1a:13:e0:29:6f:9a:dc:15:
         8b:bc:77:47:d8:e8:e2:94:42:7c:5a:92:8e:b1:18:8b:b1:61:
         7e:b6:3b:e3:be:22:2e:d8
-----BEGIN CERTIFICATE-----
MIIE8TCCAtmgAwIBAgICEAUwDQYJKoZIhvcNAQELBQAwgYkxCzAJBgNVBAYTAlVT
MRMwEQYDVQQIDApDYWxpZm9ybmlhMRYwFAYDVQQHDA1TYW4gRnJhbmNpc2NvMR0w
GwYDVQQKDBRXaWtpbWVkaWEgRm91bmRhdGlvbjETMBEGA1UECwwKT3BlcmF0aW9u
czEZMBcGA1UEAwwQV01GIENBIDIwMTctMjAyMDAeFw0xNzA3MjAwNjEwMDFaFw0x
OTA3MTAwNjEwMDFaMHAxCzAJBgNVBAYTAlVTMRMwEQYDVQQIDApDYWxpZm9ybmlh
MR0wGwYDVQQKDBRXaWtpbWVkaWEgRm91bmRhdGlvbjETMBEGA1UECwwKT3BlcmF0
aW9uczEYMBYGA1UEAwwPbGFidmlydC0qLmNvZGZ3MIIBIjANBgkqhkiG9w0BAQEF
AAOCAQ8AMIIBCgKCAQEAzzxZAjpNf1u22o/Ki0KES/YEODF/epeMjkd+EZCZh+Yj
fiMxo978GhEWOOZdPWQykMUMmtQx7A9PyQbRMSn+TxtGUYtUAdQzt02JPoCJhNf2
hha4HybqlBTsBiXtV0BVd/zgMS6uWY7kbXAyXFprprWg8TBqB/Qh7o0VX+v160D4
yMZURtF6s6hOoU9+lz8Q4iJM4BDbtKM4WgnmEyN/lbcp/pWio6UoWxIR17o6iezz
MxVUMXk/CqVhXI+wjX0LJqBdOZrabbuEL5fsR8FGN6q5ngZUYBDhkydD90yT1hGM
1lKzvmgwQX1CSMcTe5I/xJ8/xoJqKdXjje+fhVzGIQIDAQABo3sweTAJBgNVHRME
AjAAMCwGCWCGSAGG+EIBDQQfFh1PcGVuU1NMIEdlbmVyYXRlZCBDZXJ0aWZpY2F0
ZTAdBgNVHQ4EFgQUb42kdGF0zgfS1DYZ5w/wm3vOaoIwHwYDVR0jBBgwFoAU/zkF
div60ZWjub6BbsVhyq3N3KYwDQYJKoZIhvcNAQELBQADggIBADIpj7gL0W4i8EJn
4jFYIv2AMGPwcGxVQ2FjxFbtqJYs+sYvNWHjGjwdaKIfy8/gvtsBAvDJyZozQspt
XGTH4Cbnjq5SJyshD2UN0/9AeQY2yDqhANtr4CIPN5FFExIi/FmorGJ5HnJRHdKX
zxj7QIJL6Y/9ME8KKB6BW+q80ZugVe8UnfUHhbGPTWuOpe4WDThlOMidTx3CuVdb
DIcU6SSieBj3BsIRM12NMEPy0ziPFkPCQUpMbVMis4G8RMQIg7+ApfRGWwC/kY+B
aim6/TTba+r5Odsw7YGX4OhssanDmfisAtb2SFJk+/VZdem37HKF4IfZtRBrnjD8
rb+5LNahoEzXIQb8HblaaysF8WEWqGxb3D7xkXBPpabZLZzPIUI6iYay3QENpaQd
Nj9Sb16bk7XXNo9e8KQLuyAfVUFt7oZzoePgbk4edahFMNdtDcoP/FsJzliLPatT
zFErgD1wZ464vz4LwSEeU1Y+KNskNHVp74Pa/eADayi4ul06Ai/hYzViNDJp8svp
ueNpJE7ZqG4j8mdrEM/RggEjmR7QjsIb/CZ+9pCweaZBzrcjaWDlpkqhigCeTRgv
0wZd5oq1Tu/WsqKFJZtTUee/j7mXTYIzZZ/SVEx9YebMdigaE+Apb5rcFYu8d0fY
6OKUQnxako6xGIuxYX62O+O+Ii7Y
-----END CERTIFICATE-----
