Certificate:
    Data:
        Version: 3 (0x2)
        Serial Number: 4100 (0x1004)
    Signature Algorithm: sha256WithRSAEncryption
        Issuer: C=US, ST=California, L=San Francisco, O=Wikimedia Foundation, OU=Operations, CN=WMF CA 2017-2020
        Validity
            Not Before: Jul 20 04:38:15 2017 GMT
            Not After : Jul 10 04:38:15 2019 GMT
        Subject: C=US, ST=California, O=Wikimedia Foundation, OU=Operations, CN=labvirt*.eqiad.wmnet
        Subject Public Key Info:
            Public Key Algorithm: rsaEncryption
                Public-Key: (2048 bit)
                Modulus:
                    00:ca:58:a6:20:96:0e:8a:82:8e:9a:19:72:99:91:
                    d8:57:00:67:d1:87:80:a3:6d:02:9c:06:6b:e5:80:
                    84:04:ef:e9:8c:8d:b5:9f:cb:b7:f5:a4:d3:3b:1a:
                    3b:5a:0a:59:33:c6:bb:56:d7:aa:e3:6e:27:b6:5c:
                    d0:6d:1a:82:d6:d7:b5:86:85:fd:5b:a5:09:4c:f4:
                    b5:88:91:cf:f7:e7:fb:c2:6e:28:c7:d2:e7:b4:0f:
                    28:e8:ad:da:a8:4c:ac:5b:cb:70:ad:81:7b:68:9f:
                    fc:ed:dd:11:40:9e:09:dc:2d:38:c9:ea:30:d5:96:
                    85:58:59:ff:1c:da:4d:93:30:db:dd:46:4e:74:84:
                    b1:7c:da:e2:3e:12:97:61:9c:d4:d5:68:19:71:71:
                    75:58:8c:c1:1e:a7:61:0f:b3:d2:db:44:5e:3b:15:
                    5b:d4:9d:ca:df:e7:75:25:73:0b:e8:d1:c7:6e:1f:
                    ad:74:34:7a:ac:41:ab:e0:54:fa:a3:59:01:07:ae:
                    a1:f3:9c:83:58:29:a2:3a:88:11:97:82:a4:70:44:
                    32:22:43:5e:4a:3e:c7:09:30:d7:b9:f4:e4:6b:a9:
                    b2:e3:f5:f1:b2:67:ab:bf:91:44:2c:83:82:b5:ac:
                    c9:53:dd:77:6b:d0:ec:0b:fb:cc:58:95:a5:88:b0:
                    1e:3d
                Exponent: 65537 (0x10001)
        X509v3 extensions:
            X509v3 Basic Constraints: 
                CA:FALSE
            Netscape Comment: 
                OpenSSL Generated Certificate
            X509v3 Subject Key Identifier: 
                7C:90:52:2D:E9:66:E8:B3:FF:64:E7:10:59:F8:8F:EA:0D:3F:D0:1C
            X509v3 Authority Key Identifier: 
                keyid:FF:39:05:76:2B:FA:D1:95:A3:B9:BE:81:6E:C5:61:CA:AD:CD:DC:A6

    Signature Algorithm: sha256WithRSAEncryption
         98:c2:24:97:08:ce:6f:1e:bf:c3:aa:d9:69:ae:a5:f0:72:25:
         fe:05:5c:67:60:84:75:01:d6:18:5d:b7:35:5e:7a:fd:02:62:
         7c:36:27:e2:bd:bb:41:28:cb:9f:92:2d:2f:2b:26:27:44:7f:
         d0:e6:cd:92:96:8b:95:05:72:78:33:f6:fb:95:48:bd:0a:0d:
         fa:85:c1:27:88:44:a2:02:dc:1a:5a:b6:c6:3e:a8:7e:73:b1:
         c9:3e:62:90:fb:81:91:00:4c:36:55:b6:2c:41:7b:c7:5e:39:
         b5:b7:7e:5b:ba:4b:8f:8d:be:53:e3:a4:4e:a4:f5:8e:76:23:
         32:a0:3c:e3:3c:4e:c8:39:a1:c6:39:2c:cf:d5:45:2d:13:ab:
         27:16:74:a3:80:53:8d:38:15:7f:ad:10:13:d0:3a:fe:8f:58:
         06:b4:76:5f:e4:5c:b4:2b:0b:45:b6:f2:29:7f:d0:39:46:6b:
         b9:4c:21:7b:c8:c9:9f:db:b5:bb:4a:0f:95:79:31:d5:51:2a:
         4d:ff:28:a2:b6:6e:0f:d9:aa:66:de:03:59:d9:b0:54:2c:fe:
         a2:02:6b:ec:e1:97:4e:14:bd:f6:76:cb:41:47:14:5b:e7:72:
         8d:bd:ec:bb:71:d9:25:9e:ad:77:5c:e1:46:b7:5b:f7:11:83:
         6d:09:df:d0:0e:7b:5e:bb:a3:c6:d3:e9:07:e2:58:0f:04:4d:
         75:40:b8:eb:29:f8:ca:df:97:5f:3b:cb:fe:07:31:49:d0:f6:
         a3:cb:a7:db:73:d1:81:2d:cc:5f:6e:5c:93:5a:12:94:d1:73:
         25:f0:86:ca:7b:27:37:b3:5a:37:e5:53:ab:bd:23:90:2f:61:
         b6:1f:93:6a:99:cb:58:d3:e3:91:88:f9:37:56:78:a7:96:fa:
         92:0f:8f:97:f9:50:3f:78:a0:bb:08:78:37:02:66:b5:f1:10:
         03:64:9b:ce:72:27:d0:62:cb:ad:8a:47:38:e6:40:53:fa:5c:
         f2:3a:2a:02:d9:b2:75:88:dc:86:d9:0a:3e:a6:dd:bd:c8:99:
         8f:d4:5f:e2:ce:1b:dd:7c:22:59:52:eb:8d:20:64:a5:67:b5:
         2a:eb:28:57:db:5d:4a:1a:fa:62:03:5c:9c:1d:8f:e3:3b:ac:
         27:a5:53:a5:b1:9e:36:05:40:54:6b:21:96:e9:e1:aa:4d:99:
         3e:c9:dc:12:19:8f:f4:c8:d8:61:87:77:ff:4b:ca:16:ed:dc:
         fc:56:9c:e0:c5:51:c8:a7:a0:90:55:fa:4b:bb:7a:ec:49:78:
         5e:a1:d2:3a:a2:55:7b:7b:62:50:94:4b:d0:ed:eb:30:45:82:
         e4:19:43:ce:b4:0e:d7:ed
-----BEGIN CERTIFICATE-----
MIIE9jCCAt6gAwIBAgICEAQwDQYJKoZIhvcNAQELBQAwgYkxCzAJBgNVBAYTAlVT
MRMwEQYDVQQIDApDYWxpZm9ybmlhMRYwFAYDVQQHDA1TYW4gRnJhbmNpc2NvMR0w
GwYDVQQKDBRXaWtpbWVkaWEgRm91bmRhdGlvbjETMBEGA1UECwwKT3BlcmF0aW9u
czEZMBcGA1UEAwwQV01GIENBIDIwMTctMjAyMDAeFw0xNzA3MjAwNDM4MTVaFw0x
OTA3MTAwNDM4MTVaMHUxCzAJBgNVBAYTAlVTMRMwEQYDVQQIDApDYWxpZm9ybmlh
MR0wGwYDVQQKDBRXaWtpbWVkaWEgRm91bmRhdGlvbjETMBEGA1UECwwKT3BlcmF0
aW9uczEdMBsGA1UEAwwUbGFidmlydCouZXFpYWQud21uZXQwggEiMA0GCSqGSIb3
DQEBAQUAA4IBDwAwggEKAoIBAQDKWKYglg6Kgo6aGXKZkdhXAGfRh4CjbQKcBmvl
gIQE7+mMjbWfy7f1pNM7GjtaClkzxrtW16rjbie2XNBtGoLW17WGhf1bpQlM9LWI
kc/35/vCbijH0ue0DyjordqoTKxby3CtgXton/zt3RFAngncLTjJ6jDVloVYWf8c
2k2TMNvdRk50hLF82uI+EpdhnNTVaBlxcXVYjMEep2EPs9LbRF47FVvUncrf53Ul
cwvo0cduH610NHqsQavgVPqjWQEHrqHznINYKaI6iBGXgqRwRDIiQ15KPscJMNe5
9ORrqbLj9fGyZ6u/kUQsg4K1rMlT3Xdr0OwL+8xYlaWIsB49AgMBAAGjezB5MAkG
A1UdEwQCMAAwLAYJYIZIAYb4QgENBB8WHU9wZW5TU0wgR2VuZXJhdGVkIENlcnRp
ZmljYXRlMB0GA1UdDgQWBBR8kFIt6Wbos/9k5xBZ+I/qDT/QHDAfBgNVHSMEGDAW
gBT/OQV2K/rRlaO5voFuxWHKrc3cpjANBgkqhkiG9w0BAQsFAAOCAgEAmMIklwjO
bx6/w6rZaa6l8HIl/gVcZ2CEdQHWGF23NV56/QJifDYn4r27QSjLn5ItLysmJ0R/
0ObNkpaLlQVyeDP2+5VIvQoN+oXBJ4hEogLcGlq2xj6ofnOxyT5ikPuBkQBMNlW2
LEF7x145tbd+W7pLj42+U+OkTqT1jnYjMqA84zxOyDmhxjksz9VFLROrJxZ0o4BT
jTgVf60QE9A6/o9YBrR2X+RctCsLRbbyKX/QOUZruUwhe8jJn9u1u0oPlXkx1VEq
Tf8oorZuD9mqZt4DWdmwVCz+ogJr7OGXThS99nbLQUcUW+dyjb3su3HZJZ6td1zh
Rrdb9xGDbQnf0A57XrujxtPpB+JYDwRNdUC46yn4yt+XXzvL/gcxSdD2o8un23PR
gS3MX25ck1oSlNFzJfCGynsnN7NaN+VTq70jkC9hth+TapnLWNPjkYj5N1Z4p5b6
kg+Pl/lQP3iguwh4NwJmtfEQA2SbznIn0GLLrYpHOOZAU/pc8joqAtmydYjchtkK
PqbdvciZj9Rf4s4b3XwiWVLrjSBkpWe1KusoV9tdShr6YgNcnB2P4zusJ6VTpbGe
NgVAVGshlunhqk2ZPsncEhmP9MjYYYd3/0vKFu3c/Fac4MVRyKegkFX6S7t67El4
XqHSOqJVe3tiUJRL0O3rMEWC5BlDzrQO1+0=
-----END CERTIFICATE-----
