Certificate:
    Data:
        Version: 3 (0x2)
        Serial Number: 10 (0xa)
    Signature Algorithm: sha256WithRSAEncryption
        Issuer: C=US, ST=California, L=San Francisco, O=Wikimedia Foundation, OU=Operations, CN=WMF CA 2014-2017
        Validity
            Not Before: Nov 19 11:53:33 2015 GMT
            Not After : Nov  8 11:53:33 2017 GMT
        Subject: C=US, ST=California, O=Wikimedia Foundation, OU=Operations, CN=ldap-labs.eqiad.wikimedia.org/emailAddress=info@wikimedia.org
        Subject Public Key Info:
            Public Key Algorithm: rsaEncryption
                Public-Key: (4096 bit)
                Modulus:
                    00:dc:90:78:ec:27:1b:7d:5b:e4:5b:a7:fb:c8:a7:
                    d4:0b:35:d7:c9:df:43:ff:c7:6a:d5:a4:c2:3d:ff:
                    6e:f2:3c:8a:cf:62:ed:f6:9f:22:46:62:51:fa:8e:
                    5f:6c:55:4a:16:f0:a8:1d:99:a6:4c:50:61:a1:93:
                    f2:c6:bc:99:2d:a3:e5:21:74:f6:29:bf:68:fd:3d:
                    9f:6a:e2:de:3d:03:cd:ae:7a:63:21:0e:69:88:b3:
                    19:00:05:76:95:59:05:34:f0:57:2c:43:a2:87:7b:
                    84:00:90:db:e2:12:cc:ee:ab:10:e8:58:1c:c5:ff:
                    d0:26:0f:f9:23:67:ba:31:69:f2:11:a6:69:44:e7:
                    08:99:72:c2:bc:19:24:34:12:41:e6:72:2a:b4:8e:
                    04:e6:80:98:ec:64:d9:d5:14:78:f1:5c:ba:32:84:
                    29:fa:c0:0e:ec:af:4c:0b:76:dd:77:7a:93:d9:3e:
                    4f:15:22:ec:7b:34:c3:33:aa:a7:83:6a:cd:13:77:
                    7c:97:fa:4b:db:c5:1c:37:11:71:9a:f6:4d:68:e7:
                    20:80:fb:cb:38:2e:d4:4f:21:fa:bf:12:e4:4c:60:
                    30:7e:48:32:54:ba:7c:97:1c:d1:8b:7e:d6:f1:f8:
                    dd:5f:f6:b3:e9:5b:9f:37:b0:59:72:82:05:1d:e2:
                    d8:8e:ac:80:96:eb:03:03:4f:0d:da:e4:89:89:f1:
                    85:a8:8a:f5:d6:b8:5f:33:8f:f8:61:32:a8:7c:51:
                    88:d6:2f:0d:44:50:5a:e7:56:67:db:36:33:b8:b0:
                    6a:1b:c0:b9:7e:45:48:c4:5e:17:32:93:05:81:15:
                    ef:88:4f:39:e2:52:f9:91:4c:7b:04:0e:85:1c:e7:
                    47:3f:b4:27:94:90:5d:d7:78:7e:4a:ae:6c:06:7e:
                    5f:8e:bf:76:eb:23:cd:4c:e8:11:14:55:db:64:03:
                    6c:ba:f6:54:4c:a7:a4:74:bf:6f:6e:ca:f3:ca:69:
                    96:10:c2:09:66:be:71:88:8b:d3:6e:f9:d3:6e:6c:
                    7a:6c:c6:63:b3:51:bd:3b:0b:88:15:8d:b4:88:7f:
                    f1:74:e8:fa:a7:8c:29:54:87:4b:a5:88:c4:80:6e:
                    85:39:75:28:c5:c8:a5:53:cc:07:ab:98:73:dd:d4:
                    65:9e:e6:37:76:46:20:01:c0:9a:cb:e0:6b:70:da:
                    3b:8b:be:df:9f:6c:8c:96:d3:a0:de:f3:78:89:6e:
                    13:4b:c9:7f:f9:70:ce:03:44:45:93:d2:7f:21:de:
                    fb:1a:54:14:53:47:b8:c1:9c:9d:2a:d3:93:ce:23:
                    e3:14:b3:2a:6e:a2:ec:24:09:0f:11:d5:cb:3d:9b:
                    e8:6a:11
                Exponent: 65537 (0x10001)
        X509v3 extensions:
            X509v3 Basic Constraints: 
                CA:FALSE
            Netscape Comment: 
                OpenSSL Generated Certificate
            X509v3 Subject Key Identifier: 
                ED:55:74:56:95:D2:4C:8F:76:12:1E:60:EE:CF:69:ED:58:0D:52:24
            X509v3 Authority Key Identifier: 
                keyid:F4:0D:54:CB:AB:60:27:62:13:83:FB:F8:29:3B:E8:C8:98:AF:88:29

    Signature Algorithm: sha256WithRSAEncryption
         05:77:ca:08:b1:c0:68:0e:1d:66:73:35:11:3d:68:db:22:62:
         2c:96:fe:11:f8:7d:cd:03:0a:ed:63:9b:00:c7:38:43:27:23:
         9e:18:80:bc:e1:a2:e6:ad:f0:c0:c2:d6:54:ca:45:20:48:30:
         2b:16:7e:3c:6c:fa:84:e6:33:8f:05:d5:4e:03:90:59:50:97:
         44:6b:b0:36:7e:d6:f2:32:8d:fb:db:87:b0:e5:6e:99:ee:a1:
         a1:d9:bd:19:6b:7b:a4:2d:aa:70:41:da:d5:f3:2e:f4:9e:12:
         50:37:a2:c9:d6:05:c5:9c:d0:af:3b:26:ee:29:e5:16:49:cc:
         26:2e:b8:13:74:ec:8a:5c:c3:ab:bd:61:b3:4f:5f:0e:13:73:
         cc:4e:44:95:15:48:2c:73:e0:ce:92:19:8e:9c:59:ec:22:ab:
         2f:44:34:4d:d4:fa:26:e9:7e:ed:3a:95:48:6e:3b:00:05:ec:
         91:94:14:5a:8c:8b:4e:31:06:d1:54:fd:bd:bc:ec:cb:1e:1d:
         2d:ce:7a:61:33:ff:f1:76:f2:a9:f4:36:9d:6d:e0:d8:aa:bd:
         75:9a:25:b9:1b:39:39:96:0c:c6:bb:17:9a:13:8b:5f:bf:59:
         0a:33:ae:8a:ea:f8:0a:79:24:db:b4:a8:e6:ff:fb:82:b7:1f:
         69:36:13:3c:2e:d0:10:54:36:a4:31:87:50:0d:4a:3b:3d:b1:
         7d:63:ec:8a:c3:c6:76:68:4f:9f:51:7d:6f:04:38:c4:78:7d:
         9d:05:9a:37:b5:67:11:d1:34:03:d0:b5:75:4d:bf:93:4c:1a:
         e4:ae:6e:6d:1e:0e:e2:dd:b8:cd:74:44:b8:6c:e0:11:5d:bb:
         f6:54:57:3b:2f:f8:d3:7c:38:a3:79:12:91:04:f6:e0:34:00:
         d2:78:ab:95:05:72:b1:91:0e:92:75:7f:49:6e:40:a1:3a:94:
         98:87:e9:1c:5a:65:58:a8:77:b7:79:ad:00:d8:31:d3:7a:7e:
         7d:b6:0d:58:d9:2a:27:e6:05:90:21:93:68:82:82:9c:17:1e:
         99:cf:68:96:59:13:3c:67:10:24:7f:8d:e7:02:d6:e7:10:13:
         1a:80:d0:d0:dd:0c:f2:26:8c:b3:68:ea:7d:58:86:9e:cb:a1:
         bb:96:67:fe:1b:f4:b4:6a:ff:71:fd:eb:57:23:26:45:cc:cd:
         51:80:08:9e:cf:66:9f:03:20:43:08:c4:0f:3d:4b:eb:a6:1f:
         d8:45:80:d8:3a:81:05:52:1e:35:b8:01:7f:a0:13:bd:79:eb:
         a5:45:6b:7d:8f:72:15:ab:e2:8b:4f:24:cc:43:ea:a6:0d:97:
         2f:3d:c5:ae:39:7f:b9:34
-----BEGIN CERTIFICATE-----
MIIGIjCCBAqgAwIBAgIBCjANBgkqhkiG9w0BAQsFADCBiTELMAkGA1UEBhMCVVMx
EzARBgNVBAgMCkNhbGlmb3JuaWExFjAUBgNVBAcMDVNhbiBGcmFuY2lzY28xHTAb
BgNVBAoMFFdpa2ltZWRpYSBGb3VuZGF0aW9uMRMwEQYDVQQLDApPcGVyYXRpb25z
MRkwFwYDVQQDDBBXTUYgQ0EgMjAxNC0yMDE3MB4XDTE1MTExOTExNTMzM1oXDTE3
MTEwODExNTMzM1owgaExCzAJBgNVBAYTAlVTMRMwEQYDVQQIDApDYWxpZm9ybmlh
MR0wGwYDVQQKDBRXaWtpbWVkaWEgRm91bmRhdGlvbjETMBEGA1UECwwKT3BlcmF0
aW9uczEmMCQGA1UEAwwdbGRhcC1sYWJzLmVxaWFkLndpa2ltZWRpYS5vcmcxITAf
BgkqhkiG9w0BCQEWEmluZm9Ad2lraW1lZGlhLm9yZzCCAiIwDQYJKoZIhvcNAQEB
BQADggIPADCCAgoCggIBANyQeOwnG31b5Fun+8in1As118nfQ//HatWkwj3/bvI8
is9i7fafIkZiUfqOX2xVShbwqB2ZpkxQYaGT8sa8mS2j5SF09im/aP09n2ri3j0D
za56YyEOaYizGQAFdpVZBTTwVyxDood7hACQ2+ISzO6rEOhYHMX/0CYP+SNnujFp
8hGmaUTnCJlywrwZJDQSQeZyKrSOBOaAmOxk2dUUePFcujKEKfrADuyvTAt23Xd6
k9k+TxUi7Hs0wzOqp4NqzRN3fJf6S9vFHDcRcZr2TWjnIID7yzgu1E8h+r8S5Exg
MH5IMlS6fJcc0Yt+1vH43V/2s+lbnzewWXKCBR3i2I6sgJbrAwNPDdrkiYnxhaiK
9da4XzOP+GEyqHxRiNYvDURQWudWZ9s2M7iwahvAuX5FSMReFzKTBYEV74hPOeJS
+ZFMewQOhRznRz+0J5SQXdd4fkqubAZ+X46/dusjzUzoERRV22QDbLr2VEynpHS/
b27K88pplhDCCWa+cYiL0275025semzGY7NRvTsLiBWNtIh/8XTo+qeMKVSHS6WI
xIBuhTl1KMXIpVPMB6uYc93UZZ7mN3ZGIAHAmsvga3DaO4u+359sjJbToN7zeIlu
E0vJf/lwzgNERZPSfyHe+xpUFFNHuMGcnSrTk84j4xSzKm6i7CQJDxHVyz2b6GoR
AgMBAAGjezB5MAkGA1UdEwQCMAAwLAYJYIZIAYb4QgENBB8WHU9wZW5TU0wgR2Vu
ZXJhdGVkIENlcnRpZmljYXRlMB0GA1UdDgQWBBTtVXRWldJMj3YSHmDuz2ntWA1S
JDAfBgNVHSMEGDAWgBT0DVTLq2AnYhOD+/gpO+jImK+IKTANBgkqhkiG9w0BAQsF
AAOCAgEABXfKCLHAaA4dZnM1ET1o2yJiLJb+Efh9zQMK7WObAMc4QycjnhiAvOGi
5q3wwMLWVMpFIEgwKxZ+PGz6hOYzjwXVTgOQWVCXRGuwNn7W8jKN+9uHsOVume6h
odm9GWt7pC2qcEHa1fMu9J4SUDeiydYFxZzQrzsm7inlFknMJi64E3TsilzDq71h
s09fDhNzzE5ElRVILHPgzpIZjpxZ7CKrL0Q0TdT6Jul+7TqVSG47AAXskZQUWoyL
TjEG0VT9vbzsyx4dLc56YTP/8XbyqfQ2nW3g2Kq9dZoluRs5OZYMxrsXmhOLX79Z
CjOuiur4Cnkk27So5v/7grcfaTYTPC7QEFQ2pDGHUA1KOz2xfWPsisPGdmhPn1F9
bwQ4xHh9nQWaN7VnEdE0A9C1dU2/k0wa5K5ubR4O4t24zXREuGzgEV279lRXOy/4
03w4o3kSkQT24DQA0nirlQVysZEOknV/SW5AoTqUmIfpHFplWKh3t3mtANgx03p+
fbYNWNkqJ+YFkCGTaIKCnBcemc9ollkTPGcQJH+N5wLW5xATGoDQ0N0M8iaMs2jq
fViGnsuhu5Zn/hv0tGr/cf3rVyMmRczNUYAIns9mnwMgQwjEDz1L66Yf2EWA2DqB
BVIeNbgBf6ATvXnrpUVrfY9yFavii08kzEPqpg2XLz3Frjl/uTQ=
-----END CERTIFICATE-----
